; Function Attrs: mustprogress nofree norecurse nosync nounwind willreturn memory(argmem: read) uwtable
define dso_local { double, double } @_ZNK7msdfgen16QuadraticSegment5pointEd(ptr nocapture noundef nonnull readonly align 8 dereferenceable(64) %this, double noundef %param) unnamed_addr #7 align 2 {
entry:
  %p = getelementptr inbounds i8, ptr %this, i64 16
  %arrayidx5 = getelementptr inbounds i8, ptr %this, i64 32
  %sub.i = fsub double 1.000000e+00, %param
  %arrayidx12 = getelementptr inbounds i8, ptr %this, i64 48
  %0 = load <2 x double>, ptr %p, align 8
  %1 = load <2 x double>, ptr %arrayidx5, align 8
  %2 = insertelement <2 x double> poison, double %sub.i, i64 0
  %3 = shufflevector <2 x double> %2, <2 x double> poison, <2 x i32> zeroinitializer
  %4 = fmul <2 x double> %3, %0
  %5 = insertelement <2 x double> poison, double %param, i64 0
  %6 = shufflevector <2 x double> %5, <2 x double> poison, <2 x i32> zeroinitializer
  %7 = fmul <2 x double> %1, %6
  %8 = fadd <2 x double> %4, %7
  %9 = load <2 x double>, ptr %arrayidx12, align 8
  %10 = fmul <2 x double> %3, %1
  %11 = fmul <2 x double> %9, %6
  %12 = fadd <2 x double> %10, %11
  %13 = fmul <2 x double> %3, %8
  %14 = fmul <2 x double> %12, %6
  %15 = fadd <2 x double> %13, %14
  %16 = extractelement <2 x double> %15, i64 0
  %.fca.0.insert.i6.i19 = insertvalue { double, double } poison, double %16, 0
  %17 = extractelement <2 x double> %15, i64 1
  %.fca.1.insert.i7.i20 = insertvalue { double, double } %.fca.0.insert.i6.i19, double %17, 1
  ret { double, double } %.fca.1.insert.i7.i20
}